target datalayout = "e-m:e-p270:32:32-p271:32:32-p272:64:64-i64:64-i128:128-f80:128-n8:16:32:64-S128"
target triple = "x86_64-pc-linux-gnu"

; Function Attrs: inlinehint mustprogress nounwind uwtable
define internal noundef i32 @_ZN11duckdb_zstdL10MEM_swap32Ej(i32 noundef %0) #6 {
  %2 = alloca i32, align 4
  store i32 %0, ptr %2, align 4, !tbaa !11
  %3 = load i32, ptr %2, align 4, !tbaa !11
  %4 = call i32 @llvm.bswap.i32(i32 %3)
  ret i32 %4
}

; Function Attrs: inlinehint mustprogress nounwind uwtable
define internal void @_ZN11duckdb_zstdL11MEM_write32EPvj(ptr noundef %0, i32 noundef %1) #6 {
  %3 = alloca ptr, align 8
  %4 = alloca i32, align 4
  store ptr %0, ptr %3, align 8, !tbaa !3
  store i32 %1, ptr %4, align 4, !tbaa !11
  %5 = load i32, ptr %4, align 4, !tbaa !11
  %6 = load ptr, ptr %3, align 8, !tbaa !3
  store i32 %5, ptr %6, align 1, !tbaa !11
  ret void
}

; Function Attrs: inlinehint mustprogress nounwind uwtable
define internal void @_ZN11duckdb_zstdL11MEM_write16EPvt(ptr noundef %0, i16 noundef zeroext %1) #6 {
  %3 = alloca ptr, align 8
  %4 = alloca i16, align 2
  store ptr %0, ptr %3, align 8, !tbaa !3
  store i16 %1, ptr %4, align 2, !tbaa !14
  %5 = load i16, ptr %4, align 2, !tbaa !14
  %6 = load ptr, ptr %3, align 8, !tbaa !3
  store i16 %5, ptr %6, align 1, !tbaa !14
  ret void
}

; Function Attrs: inlinehint mustprogress nounwind uwtable
define internal noundef i32 @_ZN11duckdb_zstdL18MEM_isLittleEndianEv() #6 {
  ret i32 1
}

; Function Attrs: inlinehint mustprogress uwtable
define internal void @_ZN11duckdb_zstdL13MEM_writeLE32EPvj(ptr noundef %0, i32 noundef %1) #2 {
  %3 = alloca ptr, align 8
  %4 = alloca i32, align 4
  store ptr %0, ptr %3, align 8, !tbaa !3
  store i32 %1, ptr %4, align 4, !tbaa !11
  %5 = call noundef i32 @_ZN11duckdb_zstdL18MEM_isLittleEndianEv()
  %6 = icmp ne i32 %5, 0
  br i1 %6, label %7, label %10

7:                                                ; preds = %2
  %8 = load ptr, ptr %3, align 8, !tbaa !3
  %9 = load i32, ptr %4, align 4, !tbaa !11
  call void @_ZN11duckdb_zstdL11MEM_write32EPvj(ptr noundef %8, i32 noundef %9)
  br label %14

10:                                               ; preds = %2
  %11 = load ptr, ptr %3, align 8, !tbaa !3
  %12 = load i32, ptr %4, align 4, !tbaa !11
  %13 = call noundef i32 @_ZN11duckdb_zstdL10MEM_swap32Ej(i32 noundef %12)
  call void @_ZN11duckdb_zstdL11MEM_write32EPvj(ptr noundef %11, i32 noundef %13)
  br label %14

14:                                               ; preds = %10, %7
  ret void
}

; Function Attrs: inlinehint mustprogress uwtable
define internal void @_ZN11duckdb_zstdL13MEM_writeLE16EPvt(ptr noundef %0, i16 noundef zeroext %1) #2 {
  %3 = alloca ptr, align 8
  %4 = alloca i16, align 2
  %5 = alloca ptr, align 8
  store ptr %0, ptr %3, align 8, !tbaa !3
  store i16 %1, ptr %4, align 2, !tbaa !14
  %6 = call noundef i32 @_ZN11duckdb_zstdL18MEM_isLittleEndianEv()
  %7 = icmp ne i32 %6, 0
  br i1 %7, label %8, label %11

8:                                                ; preds = %2
  %9 = load ptr, ptr %3, align 8, !tbaa !3
  %10 = load i16, ptr %4, align 2, !tbaa !14
  call void @_ZN11duckdb_zstdL11MEM_write16EPvt(ptr noundef %9, i16 noundef zeroext %10)
  br label %23

11:                                               ; preds = %2
  call void @llvm.lifetime.start.p0(i64 8, ptr %5) #8
  %12 = load ptr, ptr %3, align 8, !tbaa !3
  store ptr %12, ptr %5, align 8, !tbaa !9
  %13 = load i16, ptr %4, align 2, !tbaa !14
  %14 = trunc i16 %13 to i8
  %15 = load ptr, ptr %5, align 8, !tbaa !9
  %16 = getelementptr inbounds i8, ptr %15, i64 0
  store i8 %14, ptr %16, align 1, !tbaa !13
  %17 = load i16, ptr %4, align 2, !tbaa !14
  %18 = zext i16 %17 to i32
  %19 = ashr i32 %18, 8
  %20 = trunc i32 %19 to i8
  %21 = load ptr, ptr %5, align 8, !tbaa !9
  %22 = getelementptr inbounds i8, ptr %21, i64 1
  store i8 %20, ptr %22, align 1, !tbaa !13
  call void @llvm.lifetime.end.p0(i64 8, ptr %5) #8
  br label %23

23:                                               ; preds = %11, %8
  ret void
}

; Function Attrs: mustprogress uwtable
define noundef i64 @_ZN11duckdb_zstd23ZSTD_noCompressLiteralsEPvmPKvm(ptr noundef %0, i64 noundef %1, ptr noundef %2, i64 noundef %3) #0 {
  %5 = alloca i64, align 8
  %6 = alloca ptr, align 8
  %7 = alloca i64, align 8
  %8 = alloca ptr, align 8
  %9 = alloca i64, align 8
  %10 = alloca ptr, align 8
  %11 = alloca i32, align 4
  %12 = alloca i32, align 4
  store ptr %0, ptr %6, align 8, !tbaa !3
  store i64 %1, ptr %7, align 8, !tbaa !7
  store ptr %2, ptr %8, align 8, !tbaa !3
  store i64 %3, ptr %9, align 8, !tbaa !7
  call void @llvm.lifetime.start.p0(i64 8, ptr %10) #8
  %13 = load ptr, ptr %6, align 8, !tbaa !3
  store ptr %13, ptr %10, align 8, !tbaa !9
  call void @llvm.lifetime.start.p0(i64 4, ptr %11) #8
  %14 = load i64, ptr %9, align 8, !tbaa !7
  %15 = icmp ugt i64 %14, 31
  %16 = zext i1 %15 to i32
  %17 = add nsw i32 1, %16
  %18 = load i64, ptr %9, align 8, !tbaa !7
  %19 = icmp ugt i64 %18, 4095
  %20 = zext i1 %19 to i32
  %21 = add nsw i32 %17, %20
  store i32 %21, ptr %11, align 4, !tbaa !11
  br label %22

22:                                               ; preds = %4
  br label %23

23:                                               ; preds = %22
  br label %24

24:                                               ; preds = %23
  br label %25

25:                                               ; preds = %24
  %26 = load i64, ptr %9, align 8, !tbaa !7
  %27 = load i32, ptr %11, align 4, !tbaa !11
  %28 = zext i32 %27 to i64
  %29 = add i64 %26, %28
  %30 = load i64, ptr %7, align 8, !tbaa !7
  %31 = icmp ugt i64 %29, %30
  br i1 %31, label %32, label %45

32:                                               ; preds = %25
  br label %33

33:                                               ; preds = %32
  br label %34

34:                                               ; preds = %33
  br label %35

35:                                               ; preds = %34
  br label %36

36:                                               ; preds = %35
  br label %37

37:                                               ; preds = %36
  br label %38

38:                                               ; preds = %37
  br label %39

39:                                               ; preds = %38
  br label %40

40:                                               ; preds = %39
  br label %41

41:                                               ; preds = %40
  br label %42

42:                                               ; preds = %41
  br label %43

43:                                               ; preds = %42
  br label %44

44:                                               ; preds = %43
  store i64 -70, ptr %5, align 8
  store i32 1, ptr %12, align 4
  br label %83

45:                                               ; preds = %25
  br label %46

46:                                               ; preds = %45
  br label %47

47:                                               ; preds = %46
  %48 = load i32, ptr %11, align 4, !tbaa !11
  switch i32 %48, label %68 [
    i32 1, label %49
    i32 2, label %56
    i32 3, label %62
  ]

49:                                               ; preds = %47
  %50 = load i64, ptr %9, align 8, !tbaa !7
  %51 = shl i64 %50, 3
  %52 = add i64 0, %51
  %53 = trunc i64 %52 to i8
  %54 = load ptr, ptr %10, align 8, !tbaa !9
  %55 = getelementptr inbounds i8, ptr %54, i64 0
  store i8 %53, ptr %55, align 1, !tbaa !13
  br label %69

56:                                               ; preds = %47
  %57 = load ptr, ptr %10, align 8, !tbaa !9
  %58 = load i64, ptr %9, align 8, !tbaa !7
  %59 = shl i64 %58, 4
  %60 = add i64 4, %59
  %61 = trunc i64 %60 to i16
  call void @_ZN11duckdb_zstdL13MEM_writeLE16EPvt(ptr noundef %57, i16 noundef zeroext %61)
  br label %69

62:                                               ; preds = %47
  %63 = load ptr, ptr %10, align 8, !tbaa !9
  %64 = load i64, ptr %9, align 8, !tbaa !7
  %65 = shl i64 %64, 4
  %66 = add i64 12, %65
  %67 = trunc i64 %66 to i32
  call void @_ZN11duckdb_zstdL13MEM_writeLE32EPvj(ptr noundef %63, i32 noundef %67)
  br label %69

68:                                               ; preds = %47
  br label %69

69:                                               ; preds = %68, %62, %56, %49
  %70 = load ptr, ptr %10, align 8, !tbaa !9
  %71 = load i32, ptr %11, align 4, !tbaa !11
  %72 = zext i32 %71 to i64
  %73 = getelementptr inbounds nuw i8, ptr %70, i64 %72
  %74 = load ptr, ptr %8, align 8, !tbaa !3
  %75 = load i64, ptr %9, align 8, !tbaa !7
  call void @llvm.memcpy.p0.p0.i64(ptr align 1 %73, ptr align 1 %74, i64 %75, i1 false)
  br label %76

76:                                               ; preds = %69
  br label %77

77:                                               ; preds = %76
  br label %78

78:                                               ; preds = %77
  %79 = load i64, ptr %9, align 8, !tbaa !7
  %80 = load i32, ptr %11, align 4, !tbaa !11
  %81 = zext i32 %80 to i64
  %82 = add i64 %79, %81
  store i64 %82, ptr %5, align 8
  store i32 1, ptr %12, align 4
  br label %83

83:                                               ; preds = %78, %44
  call void @llvm.lifetime.end.p0(i64 4, ptr %11) #8
  call void @llvm.lifetime.end.p0(i64 8, ptr %10) #8
  %84 = load i64, ptr %5, align 8
  ret i64 %84
}