; Function Attrs: mustprogress nofree norecurse nosync nounwind willreturn memory(argmem: readwrite) uwtable
define noundef i64 @_ZN11duckdb_zstd23ZSTD_noCompressLiteralsEPvmPKvm(ptr noundef writeonly captures(none) %0, i64 noundef %1, ptr noundef readonly captures(none) %2, i64 noundef %3) local_unnamed_addr #0 {
  %5 = icmp ugt i64 %3, 31
  %6 = select i1 %5, i32 2, i32 1
  %7 = icmp ugt i64 %3, 4095
  %8 = zext i1 %7 to i32
  %9 = add nuw nsw i32 %6, %8
  %10 = zext nneg i32 %9 to i64
  %11 = add i64 %3, %10
  %12 = icmp ugt i64 %11, %1
  br i1 %12, label %24, label %13

13:                                               ; preds = %4
  switch i32 %9, label %default.unreachable22 [
    i32 1, label %14
    i32 2, label %16
    i32 3, label %19
  ]

14:                                               ; preds = %13
  %.tr21 = trunc i64 %3 to i8
  %15 = shl i8 %.tr21, 3
  store i8 %15, ptr %0, align 1, !tbaa !3
  br label %22

16:                                               ; preds = %13
  %.tr20 = trunc i64 %3 to i16
  %17 = shl i16 %.tr20, 4
  %18 = or disjoint i16 %17, 4
  store i16 %18, ptr %0, align 1, !tbaa !6
  br label %22

19:                                               ; preds = %13
  %.tr = trunc i64 %3 to i32
  %20 = shl i32 %.tr, 4
  %21 = or disjoint i32 %20, 12
  store i32 %21, ptr %0, align 1, !tbaa !8
  br label %22

default.unreachable22:                            ; preds = %13
  unreachable

22:                                               ; preds = %19, %16, %14
  %23 = getelementptr inbounds nuw i8, ptr %0, i64 %10
  tail call void @llvm.memcpy.p0.p0.i64(ptr nonnull align 1 %23, ptr align 1 %2, i64 %3, i1 false)
  br label %24

24:                                               ; preds = %4, %22
  %.0 = phi i64 [ %11, %22 ], [ -70, %4 ]
  ret i64 %.0
}